; Function Attrs: nounwind uwtable
define hidden zeroext i1 @KMSDRM_GLES_SetSwapInterval(ptr noundef readonly captures(none) %0, i32 noundef %1) local_unnamed_addr #1 {
  %3 = getelementptr inbounds nuw i8, ptr %0, i64 1672
  %4 = load ptr, ptr %3, align 8
  %.not = icmp eq ptr %4, null
  br i1 %.not, label %5, label %7

5:                                                ; preds = %2
  %6 = tail call zeroext i1 (ptr, ...) @SDL_SetError_REAL(ptr noundef nonnull @.str) #3
  br label %12

7:                                                ; preds = %2
  %or.cond = icmp ult i32 %1, 2
  br i1 %or.cond, label %8, label %10

8:                                                ; preds = %7
  %9 = getelementptr inbounds nuw i8, ptr %4, i64 32
  store i32 %1, ptr %9, align 8
  br label %12

10:                                               ; preds = %7
  %11 = tail call zeroext i1 (ptr, ...) @SDL_SetError_REAL(ptr noundef nonnull @.str.1) #3
  br label %12

12:                                               ; preds = %8, %10, %5
  %.0 = phi i1 [ true, %8 ], [ %11, %10 ], [ %6, %5 ]
  ret i1 %.0
}